; Function Attrs: mustprogress uwtable
define void @_ZNK2cv4cuda8GpuMatNDcvNS0_6GpuMatEEv(ptr dead_on_unwind noalias writable sret(%"class.cv::cuda::GpuMat") align 8 %0, ptr noundef nonnull align 8 dereferenceable(88) %1) local_unnamed_addr #1 align 2 personality ptr @__gxx_personality_v0 {
  %3 = alloca %"class.cv::_OutputArray", align 8
  %4 = alloca %"class.cv::cuda::GpuMat", align 8
  call void @llvm.lifetime.start.p0(i64 64, ptr nonnull %4) #18
  call void @_ZNK2cv4cuda8GpuMatND18createGpuMatHeaderEv(ptr dead_on_unwind nonnull writable sret(%"class.cv::cuda::GpuMat") align 8 %4, ptr noundef nonnull align 8 dereferenceable(88) %1)
  call void @llvm.experimental.noalias.scope.decl(metadata !94)
  %5 = invoke noundef ptr @_ZN2cv4cuda6GpuMat16defaultAllocatorEv()
          to label %.noexc unwind label %21

.noexc:                                           ; preds = %2
  store i32 0, ptr %0, align 8, !tbaa !84, !alias.scope !94
  %6 = getelementptr inbounds nuw i8, ptr %0, i64 4
  store i32 0, ptr %6, align 4, !tbaa !87, !alias.scope !94
  %7 = getelementptr inbounds nuw i8, ptr %0, i64 8
  store i32 0, ptr %7, align 8, !tbaa !88, !alias.scope !94
  %8 = getelementptr inbounds nuw i8, ptr %0, i64 16
  %9 = getelementptr inbounds nuw i8, ptr %0, i64 56
  call void @llvm.memset.p0.i64(ptr noundef nonnull align 8 dereferenceable(40) %8, i8 0, i64 40, i1 false), !alias.scope !94
  store ptr %5, ptr %9, align 8, !tbaa !89, !alias.scope !94
  call void @llvm.lifetime.start.p0(i64 24, ptr nonnull %3) #18, !noalias !94
  %10 = getelementptr inbounds nuw i8, ptr %3, i64 8
  %11 = getelementptr inbounds nuw i8, ptr %3, i64 16
  store i64 0, ptr %11, align 8, !noalias !94
  store i32 34144256, ptr %3, align 8, !tbaa !90, !noalias !94
  store ptr %0, ptr %10, align 8, !tbaa !93, !noalias !94
  invoke void @_ZNK2cv4cuda6GpuMat6copyToERKNS_12_OutputArrayE(ptr noundef nonnull align 8 dereferenceable(64) %4, ptr noundef nonnull align 8 dereferenceable(24) %3)
          to label %17 unwind label %12

12:                                               ; preds = %.noexc
  %13 = landingpad { ptr, i32 }
          cleanup
  invoke void @_ZN2cv4cuda6GpuMat7releaseEv(ptr noundef nonnull align 8 dereferenceable(64) %0)
          to label %.body unwind label %14

14:                                               ; preds = %12
  %15 = landingpad { ptr, i32 }
          catch ptr null
  %16 = extractvalue { ptr, i32 } %15, 0
  call void @__clang_call_terminate(ptr %16) #22
  unreachable

17:                                               ; preds = %.noexc
  call void @llvm.lifetime.end.p0(i64 24, ptr nonnull %3) #18, !noalias !94
  invoke void @_ZN2cv4cuda6GpuMat7releaseEv(ptr noundef nonnull align 8 dereferenceable(64) %4)
          to label %_ZN2cv4cuda6GpuMatD2Ev.exit unwind label %18

18:                                               ; preds = %17
  %19 = landingpad { ptr, i32 }
          catch ptr null
  %20 = extractvalue { ptr, i32 } %19, 0
  call void @__clang_call_terminate(ptr %20) #22
  unreachable

_ZN2cv4cuda6GpuMatD2Ev.exit:                      ; preds = %17
  call void @llvm.lifetime.end.p0(i64 64, ptr nonnull %4) #18
  ret void

21:                                               ; preds = %2
  %22 = landingpad { ptr, i32 }
          cleanup
  br label %.body

.body:                                            ; preds = %12, %21
  %eh.lpad-body = phi { ptr, i32 } [ %22, %21 ], [ %13, %12 ]
  invoke void @_ZN2cv4cuda6GpuMat7releaseEv(ptr noundef nonnull align 8 dereferenceable(64) %4)
          to label %_ZN2cv4cuda6GpuMatD2Ev.exit2 unwind label %23

23:                                               ; preds = %.body
  %24 = landingpad { ptr, i32 }
          catch ptr null
  %25 = extractvalue { ptr, i32 } %24, 0
  call void @__clang_call_terminate(ptr %25) #22
  unreachable

_ZN2cv4cuda6GpuMatD2Ev.exit2:                     ; preds = %.body
  call void @llvm.lifetime.end.p0(i64 64, ptr nonnull %4) #18
  resume { ptr, i32 } %eh.lpad-body
}